target datalayout = "e-m:e-p270:32:32-p271:32:32-p272:64:64-i64:64-i128:128-f80:128-n8:16:32:64-S128"
target triple = "x86_64-unknown-linux-gnu"

%struct.NetClientInfo = type { i32, i64, ptr, ptr, ptr, ptr, ptr, ptr, ptr, ptr, ptr, ptr, ptr, ptr, ptr, ptr, ptr, ptr, ptr, ptr, ptr, ptr, ptr, ptr, ptr, ptr, ptr }
%struct.NetClientState = type { ptr, i32, %union.anon, ptr, ptr, ptr, ptr, [256 x i8], i8, ptr, i32, i8, i32, i32, i8, i8, i8, %union.anon.0 }
%union.anon = type { %struct.QTailQLink }
%struct.QTailQLink = type { ptr, ptr }
%union.anon.0 = type { %struct.QTailQLink }
%struct.VhostVDPAState = type { %struct.NetClientState, %struct.vhost_vdpa, %struct.Notifier, ptr, ptr, ptr, i8, i8, i8 }
%struct.vhost_vdpa = type { i32, i32, i32, i8, i32, %struct.MemoryListener, %struct.vhost_vdpa_iova_range, i64, i8, i8, i8, ptr, ptr, ptr, ptr, ptr, ptr, [1024 x %struct.VhostVDPAHostNotifier], %struct.anon, %struct.IOMMUNotifier }
%struct.MemoryListener = type { ptr, ptr, ptr, ptr, ptr, ptr, ptr, ptr, ptr, ptr, ptr, ptr, ptr, ptr, ptr, ptr, ptr, i32, ptr, ptr, %union.anon.1, %union.anon.2 }
%union.anon.1 = type { %struct.QTailQLink }
%union.anon.2 = type { %struct.QTailQLink }
%struct.vhost_vdpa_iova_range = type { i64, i64 }
%struct.VhostVDPAHostNotifier = type { %struct.MemoryRegion, ptr }
%struct.MemoryRegion = type { %struct.Object, i8, i8, i8, i8, i8, i8, i8, i8, i8, i8, ptr, ptr, ptr, ptr, ptr, ptr, i32, i128, i64, ptr, i64, i8, i8, i8, i8, i8, ptr, i64, i32, %union.anon.3, %union.anon.4, %union.anon.5, ptr, i32, ptr, ptr, i8 }
%struct.Object = type { ptr, ptr, ptr, i32, ptr }
%union.anon.3 = type { %struct.QTailQLink }
%union.anon.4 = type { %struct.QTailQLink }
%union.anon.5 = type { %struct.QTailQLink }
%struct.anon = type { ptr }
%struct.IOMMUNotifier = type { ptr, i32, i64, i64, i32, %struct.anon.6 }
%struct.anon.6 = type { ptr, ptr }
%struct.Notifier = type { ptr, %struct.anon.7 }
%struct.anon.7 = type { ptr, ptr }

@.str = private unnamed_addr constant [47 x i8] c"nc->info->type == NET_CLIENT_DRIVER_VHOST_VDPA\00", align 1
@.str.1 = private unnamed_addr constant [25 x i8] c"../qemu/net/vhost-vdpa.c\00", align 1
@__PRETTY_FUNCTION__.vhost_vdpa_get_vhost_net = private unnamed_addr constant [61 x i8] c"struct vhost_net *vhost_vdpa_get_vhost_net(NetClientState *)\00", align 1

; Function Attrs: nounwind sspstrong uwtable
define dso_local ptr @vhost_vdpa_get_vhost_net(ptr noundef %nc) #0 {
entry:
  %nc.addr = alloca ptr, align 8
  %s = alloca ptr, align 8
  %tmp = alloca ptr, align 8
  %__mptr = alloca ptr, align 8
  %tmp1 = alloca ptr, align 8
  store ptr %nc, ptr %nc.addr, align 8
  %0 = load ptr, ptr %nc.addr, align 8
  store ptr %0, ptr %__mptr, align 8
  %1 = load ptr, ptr %__mptr, align 8
  %add.ptr = getelementptr i8, ptr %1, i64 0
  store ptr %add.ptr, ptr %tmp1, align 8
  %2 = load ptr, ptr %tmp1, align 8
  store ptr %2, ptr %tmp, align 8
  %3 = load ptr, ptr %tmp, align 8
  store ptr %3, ptr %s, align 8
  %4 = load ptr, ptr %nc.addr, align 8
  %info = getelementptr inbounds %struct.NetClientState, ptr %4, i32 0, i32 0
  %5 = load ptr, ptr %info, align 8
  %type = getelementptr inbounds %struct.NetClientInfo, ptr %5, i32 0, i32 0
  %6 = load i32, ptr %type, align 8
  %cmp = icmp eq i32 %6, 13
  br i1 %cmp, label %if.then, label %if.else

if.then:                                          ; preds = %entry
  br label %if.end

if.else:                                          ; preds = %entry
  call void @__assert_fail(ptr noundef @.str, ptr noundef @.str.1, i32 noundef 135, ptr noundef @__PRETTY_FUNCTION__.vhost_vdpa_get_vhost_net) #10
  unreachable

if.end:                                           ; preds = %if.then
  %7 = load ptr, ptr %s, align 8
  %vhost_net = getelementptr inbounds %struct.VhostVDPAState, ptr %7, i32 0, i32 3
  %8 = load ptr, ptr %vhost_net, align 8
  ret ptr %8
}