; Function Attrs: nounwind sspstrong uwtable
define dso_local ptr @vhost_vdpa_get_vhost_net(ptr noundef readonly captures(none) %nc) local_unnamed_addr #0 {
entry:
  %0 = load ptr, ptr %nc, align 8
  %1 = load i32, ptr %0, align 8
  %cmp = icmp eq i32 %1, 13
  br i1 %cmp, label %if.end, label %if.else

if.else:                                          ; preds = %entry
  tail call void @__assert_fail(ptr noundef nonnull @.str, ptr noundef nonnull @.str.1, i32 noundef 135, ptr noundef nonnull @__PRETTY_FUNCTION__.vhost_vdpa_get_vhost_net) #12
  unreachable

if.end:                                           ; preds = %entry
  %vhost_net = getelementptr inbounds nuw i8, ptr %nc, i64 295688
  %2 = load ptr, ptr %vhost_net, align 8
  ret ptr %2
}